#include <math.h>
#include <stdio.h>
#include <stdlib.h>
#include <string.h>

int main()
{
	struct patient
	{
		char num[11];
		int age;
	}
	pat[101],t;
	int n,i,j;
	scanf("%d",&n);
	for(i=0;i<n;i++)
	{
		scanf("%s %d",&pat[i].num,&pat[i].age);
	}
    for(i=0;i<n-1;i++)
	{
		for(j=0;j<n-1-i;j++)
		{
			if((pat[j].age<60&&pat[j+1].age>=60)||(pat[j].age>=60&&pat[j+1].age>pat[j].age))
			{
				t=pat[j];
				pat[j]=pat[j+1];
				pat[j+1]=t;
			}
		}
	}
	for(i=0;i<n;i++)
	{
		printf("%s\n",pat[i].num);
	}
	return 0;
}