; ModuleID = '9/1231.c'
source_filename = "9/1231.c"
target datalayout = "e-m:e-p270:32:32-p271:32:32-p272:64:64-i64:64-f80:128-n8:16:32:64-S128"
target triple = "x86_64-pc-linux-gnu"

%struct.patient = type { [11 x i8], i32 }

@.str = private unnamed_addr constant [3 x i8] c"%d\00", align 1
@.str.1 = private unnamed_addr constant [6 x i8] c"%s %d\00", align 1
@.str.2 = private unnamed_addr constant [4 x i8] c"%s\0A\00", align 1

; Function Attrs: noinline nounwind uwtable
define dso_local i32 @main() #0 {
  %1 = alloca i32, align 4
  %2 = alloca [101 x %struct.patient], align 16
  %3 = alloca %struct.patient, align 4
  %4 = alloca i32, align 4
  %5 = alloca i32, align 4
  %6 = alloca i32, align 4
  store i32 0, i32* %1, align 4
  %7 = call i32 (i8*, ...) @__isoc99_scanf(i8* getelementptr inbounds ([3 x i8], [3 x i8]* @.str, i64 0, i64 0), i32* %4)
  store i32 0, i32* %5, align 4
  br label %8

8:                                                ; preds = %22, %0
  %9 = load i32, i32* %5, align 4
  %10 = load i32, i32* %4, align 4
  %11 = icmp slt i32 %9, %10
  br i1 %11, label %12, label %25

12:                                               ; preds = %8
  %13 = load i32, i32* %5, align 4
  %14 = sext i32 %13 to i64
  %15 = getelementptr inbounds [101 x %struct.patient], [101 x %struct.patient]* %2, i64 0, i64 %14
  %16 = getelementptr inbounds %struct.patient, %struct.patient* %15, i32 0, i32 0
  %17 = load i32, i32* %5, align 4
  %18 = sext i32 %17 to i64
  %19 = getelementptr inbounds [101 x %struct.patient], [101 x %struct.patient]* %2, i64 0, i64 %18
  %20 = getelementptr inbounds %struct.patient, %struct.patient* %19, i32 0, i32 1
  %21 = call i32 (i8*, ...) @__isoc99_scanf(i8* getelementptr inbounds ([6 x i8], [6 x i8]* @.str.1, i64 0, i64 0), [11 x i8]* %16, i32* %20)
  br label %22

22:                                               ; preds = %12
  %23 = load i32, i32* %5, align 4
  %24 = add nsw i32 %23, 1
  store i32 %24, i32* %5, align 4
  br label %8

25:                                               ; preds = %8
  store i32 0, i32* %5, align 4
  br label %26

26:                                               ; preds = %100, %25
  %27 = load i32, i32* %5, align 4
  %28 = load i32, i32* %4, align 4
  %29 = sub nsw i32 %28, 1
  %30 = icmp slt i32 %27, %29
  br i1 %30, label %31, label %103

31:                                               ; preds = %26
  store i32 0, i32* %6, align 4
  br label %32

32:                                               ; preds = %96, %31
  %33 = load i32, i32* %6, align 4
  %34 = load i32, i32* %4, align 4
  %35 = sub nsw i32 %34, 1
  %36 = load i32, i32* %5, align 4
  %37 = sub nsw i32 %35, %36
  %38 = icmp slt i32 %33, %37
  br i1 %38, label %39, label %99

39:                                               ; preds = %32
  %40 = load i32, i32* %6, align 4
  %41 = sext i32 %40 to i64
  %42 = getelementptr inbounds [101 x %struct.patient], [101 x %struct.patient]* %2, i64 0, i64 %41
  %43 = getelementptr inbounds %struct.patient, %struct.patient* %42, i32 0, i32 1
  %44 = load i32, i32* %43, align 4
  %45 = icmp slt i32 %44, 60
  br i1 %45, label %46, label %54

46:                                               ; preds = %39
  %47 = load i32, i32* %6, align 4
  %48 = add nsw i32 %47, 1
  %49 = sext i32 %48 to i64
  %50 = getelementptr inbounds [101 x %struct.patient], [101 x %struct.patient]* %2, i64 0, i64 %49
  %51 = getelementptr inbounds %struct.patient, %struct.patient* %50, i32 0, i32 1
  %52 = load i32, i32* %51, align 4
  %53 = icmp sge i32 %52, 60
  br i1 %53, label %74, label %54

54:                                               ; preds = %46, %39
  %55 = load i32, i32* %6, align 4
  %56 = sext i32 %55 to i64
  %57 = getelementptr inbounds [101 x %struct.patient], [101 x %struct.patient]* %2, i64 0, i64 %56
  %58 = getelementptr inbounds %struct.patient, %struct.patient* %57, i32 0, i32 1
  %59 = load i32, i32* %58, align 4
  %60 = icmp sge i32 %59, 60
  br i1 %60, label %61, label %95

61:                                               ; preds = %54
  %62 = load i32, i32* %6, align 4
  %63 = add nsw i32 %62, 1
  %64 = sext i32 %63 to i64
  %65 = getelementptr inbounds [101 x %struct.patient], [101 x %struct.patient]* %2, i64 0, i64 %64
  %66 = getelementptr inbounds %struct.patient, %struct.patient* %65, i32 0, i32 1
  %67 = load i32, i32* %66, align 4
  %68 = load i32, i32* %6, align 4
  %69 = sext i32 %68 to i64
  %70 = getelementptr inbounds [101 x %struct.patient], [101 x %struct.patient]* %2, i64 0, i64 %69
  %71 = getelementptr inbounds %struct.patient, %struct.patient* %70, i32 0, i32 1
  %72 = load i32, i32* %71, align 4
  %73 = icmp sgt i32 %67, %72
  br i1 %73, label %74, label %95

74:                                               ; preds = %61, %46
  %75 = load i32, i32* %6, align 4
  %76 = sext i32 %75 to i64
  %77 = getelementptr inbounds [101 x %struct.patient], [101 x %struct.patient]* %2, i64 0, i64 %76
  %78 = bitcast %struct.patient* %3 to i8*
  %79 = bitcast %struct.patient* %77 to i8*
  call void @llvm.memcpy.p0i8.p0i8.i64(i8* align 4 %78, i8* align 16 %79, i64 16, i1 false)
  %80 = load i32, i32* %6, align 4
  %81 = sext i32 %80 to i64
  %82 = getelementptr inbounds [101 x %struct.patient], [101 x %struct.patient]* %2, i64 0, i64 %81
  %83 = load i32, i32* %6, align 4
  %84 = add nsw i32 %83, 1
  %85 = sext i32 %84 to i64
  %86 = getelementptr inbounds [101 x %struct.patient], [101 x %struct.patient]* %2, i64 0, i64 %85
  %87 = bitcast %struct.patient* %82 to i8*
  %88 = bitcast %struct.patient* %86 to i8*
  call void @llvm.memcpy.p0i8.p0i8.i64(i8* align 16 %87, i8* align 16 %88, i64 16, i1 false)
  %89 = load i32, i32* %6, align 4
  %90 = add nsw i32 %89, 1
  %91 = sext i32 %90 to i64
  %92 = getelementptr inbounds [101 x %struct.patient], [101 x %struct.patient]* %2, i64 0, i64 %91
  %93 = bitcast %struct.patient* %92 to i8*
  %94 = bitcast %struct.patient* %3 to i8*
  call void @llvm.memcpy.p0i8.p0i8.i64(i8* align 16 %93, i8* align 4 %94, i64 16, i1 false)
  br label %95

95:                                               ; preds = %74, %61, %54
  br label %96

96:                                               ; preds = %95
  %97 = load i32, i32* %6, align 4
  %98 = add nsw i32 %97, 1
  store i32 %98, i32* %6, align 4
  br label %32

99:                                               ; preds = %32
  br label %100

100:                                              ; preds = %99
  %101 = load i32, i32* %5, align 4
  %102 = add nsw i32 %101, 1
  store i32 %102, i32* %5, align 4
  br label %26

103:                                              ; preds = %26
  store i32 0, i32* %5, align 4
  br label %104

104:                                              ; preds = %115, %103
  %105 = load i32, i32* %5, align 4
  %106 = load i32, i32* %4, align 4
  %107 = icmp slt i32 %105, %106
  br i1 %107, label %108, label %118

108:                                              ; preds = %104
  %109 = load i32, i32* %5, align 4
  %110 = sext i32 %109 to i64
  %111 = getelementptr inbounds [101 x %struct.patient], [101 x %struct.patient]* %2, i64 0, i64 %110
  %112 = getelementptr inbounds %struct.patient, %struct.patient* %111, i32 0, i32 0
  %113 = getelementptr inbounds [11 x i8], [11 x i8]* %112, i64 0, i64 0
  %114 = call i32 (i8*, ...) @printf(i8* getelementptr inbounds ([4 x i8], [4 x i8]* @.str.2, i64 0, i64 0), i8* %113)
  br label %115

115:                                              ; preds = %108
  %116 = load i32, i32* %5, align 4
  %117 = add nsw i32 %116, 1
  store i32 %117, i32* %5, align 4
  br label %104

118:                                              ; preds = %104
  ret i32 0
}

declare dso_local i32 @__isoc99_scanf(i8*, ...) #1

; Function Attrs: argmemonly nounwind willreturn
declare void @llvm.memcpy.p0i8.p0i8.i64(i8* noalias nocapture writeonly, i8* noalias nocapture readonly, i64, i1 immarg) #2

declare dso_local i32 @printf(i8*, ...) #1


!llvm.module.flags = !{!0}
!llvm.ident = !{!1}

!0 = !{i32 1, !"wchar_size", i32 4}
!1 = !{!"clang version 10.0.0-4ubuntu1 "}
